target datalayout = "e-m:e-p270:32:32-p271:32:32-p272:64:64-i64:64-i128:128-f80:128-n8:16:32:64-S128"
target triple = "x86_64-pc-linux-gnu"

%struct.H5O_drvinfo_t = type { %struct.H5C_cache_entry_t, [9 x i8], i64, ptr }
%struct.H5C_cache_entry_t = type { ptr, i64, i64, ptr, i8, ptr, i8, i8, i8, i8, i32, i8, i8, i8, i8, i8, i32, ptr, i32, i32, i32, i32, i32, i8, i8, ptr, ptr, ptr, ptr, ptr, ptr, i8, i32, i8, i64, ptr, i64, i64, i32, i8, i32, i32, i8, ptr, ptr, ptr }

@H5O_init_g = external global i8, align 1
@H5_libterm_g = external global i8, align 1
@.str.9 = private unnamed_addr constant [12 x i8] c"%*s%-*s %s\0A\00", align 1
@.str.10 = private unnamed_addr constant [1 x i8] zeroinitializer, align 1
@.str.11 = private unnamed_addr constant [13 x i8] c"Driver name:\00", align 1
@.str.12 = private unnamed_addr constant [13 x i8] c"%*s%-*s %zu\0A\00", align 1
@.str.13 = private unnamed_addr constant [13 x i8] c"Buffer size:\00", align 1

; Function Attrs: nounwind uwtable
define internal i32 @H5O__drvinfo_debug(ptr noundef %0, ptr noundef %1, ptr noundef %2, i32 noundef %3, i32 noundef %4) #0 {
  %6 = alloca ptr, align 8
  %7 = alloca ptr, align 8
  %8 = alloca ptr, align 8
  %9 = alloca i32, align 4
  %10 = alloca i32, align 4
  %11 = alloca ptr, align 8
  store ptr %0, ptr %6, align 8, !tbaa !3
  store ptr %1, ptr %7, align 8, !tbaa !20
  store ptr %2, ptr %8, align 8, !tbaa !43
  store i32 %3, ptr %9, align 4, !tbaa !10
  store i32 %4, ptr %10, align 4, !tbaa !10
  call void @llvm.lifetime.start.p0(i64 8, ptr %11) #8
  %12 = load ptr, ptr %7, align 8, !tbaa !20
  store ptr %12, ptr %11, align 8, !tbaa !18
  %13 = load i8, ptr @H5O_init_g, align 1, !tbaa !21, !range !23, !noundef !24
  %14 = trunc i8 %13 to i1
  br i1 %14, label %19, label %15

15:                                               ; preds = %5
  %16 = load i8, ptr @H5_libterm_g, align 1, !tbaa !21, !range !23, !noundef !24
  %17 = trunc i8 %16 to i1
  %18 = xor i1 %17, true
  br label %19

19:                                               ; preds = %15, %5
  %20 = phi i1 [ true, %5 ], [ %18, %15 ]
  %21 = xor i1 %20, true
  %22 = xor i1 %21, true
  %23 = zext i1 %22 to i32
  %24 = sext i32 %23 to i64
  %25 = call i64 @llvm.expect.i64(i64 %24, i64 1)
  %26 = icmp ne i64 %25, 0
  br i1 %26, label %27, label %42

27:                                               ; preds = %19
  %28 = load ptr, ptr %8, align 8, !tbaa !43
  %29 = load i32, ptr %9, align 4, !tbaa !10
  %30 = load i32, ptr %10, align 4, !tbaa !10
  %31 = load ptr, ptr %11, align 8, !tbaa !18
  %32 = getelementptr inbounds nuw %struct.H5O_drvinfo_t, ptr %31, i32 0, i32 1
  %33 = getelementptr inbounds [9 x i8], ptr %32, i64 0, i64 0
  %34 = call i32 (ptr, ptr, ...) @fprintf(ptr noundef %28, ptr noundef @.str.9, i32 noundef %29, ptr noundef @.str.10, i32 noundef %30, ptr noundef @.str.11, ptr noundef %33) #8
  %35 = load ptr, ptr %8, align 8, !tbaa !43
  %36 = load i32, ptr %9, align 4, !tbaa !10
  %37 = load i32, ptr %10, align 4, !tbaa !10
  %38 = load ptr, ptr %11, align 8, !tbaa !18
  %39 = getelementptr inbounds nuw %struct.H5O_drvinfo_t, ptr %38, i32 0, i32 2
  %40 = load i64, ptr %39, align 8, !tbaa !26
  %41 = call i32 (ptr, ptr, ...) @fprintf(ptr noundef %35, ptr noundef @.str.12, i32 noundef %36, ptr noundef @.str.10, i32 noundef %37, ptr noundef @.str.13, i64 noundef %40) #8
  br label %42

42:                                               ; preds = %27, %19
  call void @llvm.lifetime.end.p0(i64 8, ptr %11) #8
  ret i32 0
}