; Function Attrs: nofree nounwind uwtable
define internal noundef i32 @H5O__drvinfo_debug(ptr readnone captures(none) %0, ptr noundef %1, ptr noundef captures(none) %2, i32 noundef %3, i32 noundef %4) #3 {
  %6 = load i8, ptr @H5O_init_g, align 1, !tbaa !3, !range !7, !noundef !8
  %7 = trunc nuw i8 %6 to i1
  %8 = load i8, ptr @H5_libterm_g, align 1, !range !7
  %9 = trunc nuw i8 %8 to i1
  %10 = xor i1 %9, true
  %11 = select i1 %7, i1 true, i1 %10
  br i1 %11, label %12, label %18, !prof !9

12:                                               ; preds = %5
  %13 = getelementptr inbounds nuw i8, ptr %1, i64 248
  %14 = tail call i32 (ptr, ptr, ...) @fprintf(ptr noundef %2, ptr noundef nonnull @.str.9, i32 noundef %3, ptr noundef nonnull @.str.10, i32 noundef %4, ptr noundef nonnull @.str.11, ptr noundef nonnull %13) #9
  %15 = getelementptr inbounds nuw i8, ptr %1, i64 264
  %16 = load i64, ptr %15, align 8, !tbaa !13
  %17 = tail call i32 (ptr, ptr, ...) @fprintf(ptr noundef %2, ptr noundef nonnull @.str.12, i32 noundef %3, ptr noundef nonnull @.str.10, i32 noundef %4, ptr noundef nonnull @.str.13, i64 noundef %16) #9
  br label %18

18:                                               ; preds = %12, %5
  ret i32 0
}